#include <math.h>
#include <stdio.h>
#include <stdlib.h>
#include <string.h>

int main(){
    int n,i;
    double y,a;
    scanf("%d",&n);
    if(n>0){
            a=1.0;
            for(i=0;i<n;i++){
                             y=a*2;
                             a=y; 
                             }
                             }
                          if(n==0){
                                   y=1.0;
                                   }  
                                   printf("%.0lf",y);
                                                                      return 0;
                                   }  